target datalayout = "e-m:e-p270:32:32-p271:32:32-p272:64:64-i64:64-i128:128-f80:128-n8:16:32:64-S128"
target triple = "x86_64-pc-linux-gnu"

%struct.ident_t = type { i32, i32, i32, i32, ptr }
%"class.open3d::t::geometry::kernel::TArrayIndexer" = type { ptr, i64, i64, [4 x i64] }
%class.anon.412 = type { i64, %"class.open3d::t::geometry::kernel::TArrayIndexer", float, float, float, float, %"class.open3d::t::geometry::kernel::TArrayIndexer" }

@1 = private unnamed_addr constant %struct.ident_t { i32 0, i32 514, i32 0, i32 22, ptr @0 }, align 8

; Function Attrs: inlinehint mustprogress nounwind ssp uwtable
define linkonce_odr hidden void @_ZNK6open3d1t8geometry6kernel13TArrayIndexerIlE15CoordToWorkloadEllPl(ptr noundef nonnull align 8 dereferenceable(56) %0, i64 noundef %1, i64 noundef %2, ptr noundef %3) #2 comdat align 2 {
  %5 = alloca ptr, align 8
  %6 = alloca i64, align 8
  %7 = alloca i64, align 8
  %8 = alloca ptr, align 8
  store ptr %0, ptr %5, align 8, !tbaa !1774
  store i64 %1, ptr %6, align 8, !tbaa !49
  store i64 %2, ptr %7, align 8, !tbaa !49
  store ptr %3, ptr %8, align 8, !tbaa !29
  %9 = load ptr, ptr %5, align 8
  %10 = load i64, ptr %7, align 8, !tbaa !49
  %11 = getelementptr inbounds nuw %"class.open3d::t::geometry::kernel::TArrayIndexer", ptr %9, i32 0, i32 3
  %12 = getelementptr inbounds [4 x i64], ptr %11, i64 0, i64 1
  %13 = load i64, ptr %12, align 8, !tbaa !49
  %14 = mul nsw i64 %10, %13
  %15 = load i64, ptr %6, align 8, !tbaa !49
  %16 = add nsw i64 %14, %15
  %17 = load ptr, ptr %8, align 8, !tbaa !29
  store i64 %16, ptr %17, align 8, !tbaa !49
  ret void
}

; Function Attrs: inlinehint mustprogress nounwind ssp uwtable
define linkonce_odr hidden noundef ptr @_ZNK6open3d1t8geometry6kernel13TArrayIndexerIlE10GetDataPtrIhEEPT_ll(ptr noundef nonnull align 8 dereferenceable(56) %0, i64 noundef %1, i64 noundef %2) #2 comdat align 2 {
  %4 = alloca ptr, align 8
  %5 = alloca i64, align 8
  %6 = alloca i64, align 8
  %7 = alloca i64, align 8
  store ptr %0, ptr %4, align 8, !tbaa !1774
  store i64 %1, ptr %5, align 8, !tbaa !49
  store i64 %2, ptr %6, align 8, !tbaa !49
  %8 = load ptr, ptr %4, align 8
  call void @llvm.lifetime.start.p0(i64 8, ptr %7) #19
  %9 = load i64, ptr %5, align 8, !tbaa !49
  %10 = load i64, ptr %6, align 8, !tbaa !49
  call void @_ZNK6open3d1t8geometry6kernel13TArrayIndexerIlE15CoordToWorkloadEllPl(ptr noundef nonnull align 8 dereferenceable(56) %8, i64 noundef %9, i64 noundef %10, ptr noundef %7)
  %11 = getelementptr inbounds nuw %"class.open3d::t::geometry::kernel::TArrayIndexer", ptr %8, i32 0, i32 0
  %12 = load ptr, ptr %11, align 8, !tbaa !1782
  %13 = load i64, ptr %7, align 8, !tbaa !49
  %14 = getelementptr inbounds nuw %"class.open3d::t::geometry::kernel::TArrayIndexer", ptr %8, i32 0, i32 1
  %15 = load i64, ptr %14, align 8, !tbaa !1779
  %16 = mul nsw i64 %13, %15
  %17 = getelementptr inbounds i8, ptr %12, i64 %16
  call void @llvm.lifetime.end.p0(i64 8, ptr %7) #19
  ret ptr %17
}

; Function Attrs: inlinehint mustprogress nounwind ssp uwtable
define linkonce_odr hidden noundef ptr @_ZNK6open3d1t8geometry6kernel13TArrayIndexerIlE10GetDataPtrIsEEPT_ll(ptr noundef nonnull align 8 dereferenceable(56) %0, i64 noundef %1, i64 noundef %2) #2 comdat align 2 {
  %4 = alloca ptr, align 8
  %5 = alloca i64, align 8
  %6 = alloca i64, align 8
  %7 = alloca i64, align 8
  store ptr %0, ptr %4, align 8, !tbaa !1774
  store i64 %1, ptr %5, align 8, !tbaa !49
  store i64 %2, ptr %6, align 8, !tbaa !49
  %8 = load ptr, ptr %4, align 8
  call void @llvm.lifetime.start.p0(i64 8, ptr %7) #19
  %9 = load i64, ptr %5, align 8, !tbaa !49
  %10 = load i64, ptr %6, align 8, !tbaa !49
  call void @_ZNK6open3d1t8geometry6kernel13TArrayIndexerIlE15CoordToWorkloadEllPl(ptr noundef nonnull align 8 dereferenceable(56) %8, i64 noundef %9, i64 noundef %10, ptr noundef %7)
  %11 = getelementptr inbounds nuw %"class.open3d::t::geometry::kernel::TArrayIndexer", ptr %8, i32 0, i32 0
  %12 = load ptr, ptr %11, align 8, !tbaa !1782
  %13 = load i64, ptr %7, align 8, !tbaa !49
  %14 = getelementptr inbounds nuw %"class.open3d::t::geometry::kernel::TArrayIndexer", ptr %8, i32 0, i32 1
  %15 = load i64, ptr %14, align 8, !tbaa !1779
  %16 = mul nsw i64 %13, %15
  %17 = getelementptr inbounds i8, ptr %12, i64 %16
  call void @llvm.lifetime.end.p0(i64 8, ptr %7) #19
  ret ptr %17
}

; Function Attrs: noinline noreturn nounwind ssp uwtable
define linkonce_odr hidden void @__clang_call_terminate(ptr noundef %0) #9 comdat {
  %2 = call ptr @__cxa_begin_catch(ptr %0) #19
  call void @_ZSt9terminatev() #29
  unreachable
}

; Function Attrs: inlinehint mustprogress nounwind ssp uwtable
define internal void @"_ZZZZN6open3d1t8geometry6kernel5image16ColorizeDepthCPUERKNS_4core6TensorERS5_fffENK3$_0clEvENKUlvE2_clEvENKUllE_clEl"(ptr noundef nonnull align 8 dereferenceable(136) %0, i64 noundef %1) #2 align 2 {
  %3 = alloca ptr, align 8
  %4 = alloca i64, align 8
  %5 = alloca i64, align 8
  %6 = alloca i64, align 8
  %7 = alloca float, align 4
  %8 = alloca float, align 4
  %9 = alloca i32, align 4
  %10 = alloca ptr, align 8
  store ptr %0, ptr %3, align 8, !tbaa !51
  store i64 %1, ptr %4, align 8, !tbaa !49
  %11 = load ptr, ptr %3, align 8
  call void @llvm.lifetime.start.p0(i64 8, ptr %5) #19
  %12 = load i64, ptr %4, align 8, !tbaa !49
  %13 = getelementptr inbounds nuw %class.anon.412, ptr %11, i32 0, i32 0
  %14 = load i64, ptr %13, align 8, !tbaa !2085
  %15 = sdiv i64 %12, %14
  store i64 %15, ptr %5, align 8, !tbaa !49
  call void @llvm.lifetime.start.p0(i64 8, ptr %6) #19
  %16 = load i64, ptr %4, align 8, !tbaa !49
  %17 = getelementptr inbounds nuw %class.anon.412, ptr %11, i32 0, i32 0
  %18 = load i64, ptr %17, align 8, !tbaa !2085
  %19 = srem i64 %16, %18
  store i64 %19, ptr %6, align 8, !tbaa !49
  call void @llvm.lifetime.start.p0(i64 4, ptr %7) #19
  %20 = getelementptr inbounds nuw %class.anon.412, ptr %11, i32 0, i32 1
  %21 = load i64, ptr %6, align 8, !tbaa !49
  %22 = load i64, ptr %5, align 8, !tbaa !49
  %23 = call noundef ptr @_ZNK6open3d1t8geometry6kernel13TArrayIndexerIlE10GetDataPtrIsEEPT_ll(ptr noundef nonnull align 8 dereferenceable(56) %20, i64 noundef %21, i64 noundef %22)
  %24 = load i16, ptr %23, align 2, !tbaa !422
  %25 = sitofp i16 %24 to float
  store float %25, ptr %7, align 4, !tbaa !15
  call void @llvm.lifetime.start.p0(i64 4, ptr %8) #19
  %26 = load float, ptr %7, align 4, !tbaa !15
  %27 = getelementptr inbounds nuw %class.anon.412, ptr %11, i32 0, i32 2
  %28 = load float, ptr %27, align 8, !tbaa !2089
  %29 = fdiv float %26, %28
  store float %29, ptr %8, align 4, !tbaa !15
  %30 = load float, ptr %8, align 4, !tbaa !15
  %31 = getelementptr inbounds nuw %class.anon.412, ptr %11, i32 0, i32 3
  %32 = load float, ptr %31, align 4, !tbaa !2091
  %33 = fcmp ole float %30, %32
  br i1 %33, label %34, label %37

34:                                               ; preds = %2
  %35 = getelementptr inbounds nuw %class.anon.412, ptr %11, i32 0, i32 3
  %36 = load float, ptr %35, align 4, !tbaa !2091
  br label %39

37:                                               ; preds = %2
  %38 = load float, ptr %8, align 4, !tbaa !15
  br label %39

39:                                               ; preds = %37, %34
  %40 = phi float [ %36, %34 ], [ %38, %37 ]
  store float %40, ptr %8, align 4, !tbaa !15
  %41 = load float, ptr %8, align 4, !tbaa !15
  %42 = getelementptr inbounds nuw %class.anon.412, ptr %11, i32 0, i32 4
  %43 = load float, ptr %42, align 8, !tbaa !2093
  %44 = fcmp oge float %41, %43
  br i1 %44, label %45, label %48

45:                                               ; preds = %39
  %46 = getelementptr inbounds nuw %class.anon.412, ptr %11, i32 0, i32 4
  %47 = load float, ptr %46, align 8, !tbaa !2093
  br label %50

48:                                               ; preds = %39
  %49 = load float, ptr %8, align 4, !tbaa !15
  br label %50

50:                                               ; preds = %48, %45
  %51 = phi float [ %47, %45 ], [ %49, %48 ]
  store float %51, ptr %8, align 4, !tbaa !15
  call void @llvm.lifetime.start.p0(i64 4, ptr %9) #19
  %52 = getelementptr inbounds nuw %class.anon.412, ptr %11, i32 0, i32 5
  %53 = load float, ptr %52, align 4, !tbaa !2095
  %54 = load float, ptr %8, align 4, !tbaa !15
  %55 = getelementptr inbounds nuw %class.anon.412, ptr %11, i32 0, i32 3
  %56 = load float, ptr %55, align 4, !tbaa !2091
  %57 = fsub float %54, %56
  %58 = fmul float %53, %57
  %59 = fptosi float %58 to i32
  store i32 %59, ptr %9, align 4, !tbaa !127
  call void @llvm.lifetime.start.p0(i64 8, ptr %10) #19
  %60 = getelementptr inbounds nuw %class.anon.412, ptr %11, i32 0, i32 6
  %61 = load i64, ptr %6, align 8, !tbaa !49
  %62 = load i64, ptr %5, align 8, !tbaa !49
  %63 = call noundef ptr @_ZNK6open3d1t8geometry6kernel13TArrayIndexerIlE10GetDataPtrIhEEPT_ll(ptr noundef nonnull align 8 dereferenceable(56) %60, i64 noundef %61, i64 noundef %62)
  store ptr %63, ptr %10, align 8, !tbaa !23
  %64 = load i32, ptr %9, align 4, !tbaa !127
  %65 = sext i32 %64 to i64
  %66 = getelementptr inbounds [256 x [3 x i8]], ptr @_ZN12_GLOBAL__N_116turbo_srgb_bytesE, i64 0, i64 %65
  %67 = getelementptr inbounds [3 x i8], ptr %66, i64 0, i64 0
  %68 = load i8, ptr %67, align 1, !tbaa !50
  %69 = load ptr, ptr %10, align 8, !tbaa !23
  %70 = getelementptr inbounds i8, ptr %69, i64 0
  store i8 %68, ptr %70, align 1, !tbaa !50
  %71 = load i32, ptr %9, align 4, !tbaa !127
  %72 = sext i32 %71 to i64
  %73 = getelementptr inbounds [256 x [3 x i8]], ptr @_ZN12_GLOBAL__N_116turbo_srgb_bytesE, i64 0, i64 %72
  %74 = getelementptr inbounds [3 x i8], ptr %73, i64 0, i64 1
  %75 = load i8, ptr %74, align 1, !tbaa !50
  %76 = load ptr, ptr %10, align 8, !tbaa !23
  %77 = getelementptr inbounds i8, ptr %76, i64 1
  store i8 %75, ptr %77, align 1, !tbaa !50
  %78 = load i32, ptr %9, align 4, !tbaa !127
  %79 = sext i32 %78 to i64
  %80 = getelementptr inbounds [256 x [3 x i8]], ptr @_ZN12_GLOBAL__N_116turbo_srgb_bytesE, i64 0, i64 %79
  %81 = getelementptr inbounds [3 x i8], ptr %80, i64 0, i64 2
  %82 = load i8, ptr %81, align 1, !tbaa !50
  %83 = load ptr, ptr %10, align 8, !tbaa !23
  %84 = getelementptr inbounds i8, ptr %83, i64 2
  store i8 %82, ptr %84, align 1, !tbaa !50
  call void @llvm.lifetime.end.p0(i64 8, ptr %10) #19
  call void @llvm.lifetime.end.p0(i64 4, ptr %9) #19
  call void @llvm.lifetime.end.p0(i64 4, ptr %8) #19
  call void @llvm.lifetime.end.p0(i64 4, ptr %7) #19
  call void @llvm.lifetime.end.p0(i64 8, ptr %6) #19
  call void @llvm.lifetime.end.p0(i64 8, ptr %5) #19
  ret void
}

; Function Attrs: alwaysinline norecurse nounwind ssp uwtable
define internal void @"_ZN6open3d4core15ParallelForCPU_IZZZNS_1t8geometry6kernel5image16ColorizeDepthCPUERKNS0_6TensorERS6_fffENK3$_0clEvENKUlvE2_clEvEUllE_EEvRKNS0_6DeviceElRKT_.omp_outlined"(ptr noalias noundef %0, ptr noalias noundef %1, ptr noundef nonnull align 8 dereferenceable(8) %2, ptr noundef nonnull align 8 dereferenceable(136) %3) #18 personality ptr @__gxx_personality_v0 {
  %5 = alloca ptr, align 8
  %6 = alloca ptr, align 8
  %7 = alloca ptr, align 8
  %8 = alloca ptr, align 8
  %9 = alloca ptr, align 8
  %10 = alloca i64, align 8
  %11 = alloca i64, align 8
  %12 = alloca i64, align 8
  %13 = alloca i64, align 8
  %14 = alloca i64, align 8
  %15 = alloca i64, align 8
  %16 = alloca i64, align 8
  %17 = alloca i32, align 4
  %18 = alloca i64, align 8
  store ptr %0, ptr %5, align 8, !tbaa !27
  store ptr %1, ptr %6, align 8, !tbaa !27
  store ptr %2, ptr %7, align 8, !tbaa !29
  store ptr %3, ptr %8, align 8, !tbaa !51
  %19 = load ptr, ptr %7, align 8, !tbaa !29
  %20 = load ptr, ptr %8, align 8, !tbaa !51
  store ptr %20, ptr %9, align 8
  call void @llvm.lifetime.start.p0(i64 8, ptr %10) #19
  call void @llvm.lifetime.start.p0(i64 8, ptr %11) #19
  %21 = load i64, ptr %19, align 8, !tbaa !49
  store i64 %21, ptr %11, align 8, !tbaa !49
  call void @llvm.lifetime.start.p0(i64 8, ptr %12) #19
  %22 = load i64, ptr %11, align 8, !tbaa !49
  %23 = sub nsw i64 %22, 0
  %24 = sdiv i64 %23, 1
  %25 = sub nsw i64 %24, 1
  store i64 %25, ptr %12, align 8, !tbaa !49
  call void @llvm.lifetime.start.p0(i64 8, ptr %13) #19
  store i64 0, ptr %13, align 8, !tbaa !49
  call void @llvm.lifetime.end.p0(i64 8, ptr %13) #19
  %26 = load i64, ptr %11, align 8, !tbaa !49
  %27 = icmp slt i64 0, %26
  br i1 %27, label %28, label %62

28:                                               ; preds = %4
  call void @llvm.lifetime.start.p0(i64 8, ptr %14) #19
  store i64 0, ptr %14, align 8, !tbaa !49
  call void @llvm.lifetime.start.p0(i64 8, ptr %15) #19
  %29 = load i64, ptr %12, align 8, !tbaa !49
  store i64 %29, ptr %15, align 8, !tbaa !49
  call void @llvm.lifetime.start.p0(i64 8, ptr %16) #19
  store i64 1, ptr %16, align 8, !tbaa !49
  call void @llvm.lifetime.start.p0(i64 4, ptr %17) #19
  store i32 0, ptr %17, align 4, !tbaa !127
  call void @llvm.lifetime.start.p0(i64 8, ptr %18) #19
  %30 = load ptr, ptr %5, align 8
  %31 = load i32, ptr %30, align 4, !tbaa !127
  call void @__kmpc_for_static_init_8(ptr @1, i32 %31, i32 34, ptr %17, ptr %14, ptr %15, ptr %16, i64 1, i64 1)
  %32 = load i64, ptr %15, align 8, !tbaa !49
  %33 = load i64, ptr %12, align 8, !tbaa !49
  %34 = icmp sgt i64 %32, %33
  br i1 %34, label %35, label %37

35:                                               ; preds = %28
  %36 = load i64, ptr %12, align 8, !tbaa !49
  br label %39

37:                                               ; preds = %28
  %38 = load i64, ptr %15, align 8, !tbaa !49
  br label %39

39:                                               ; preds = %37, %35
  %40 = phi i64 [ %36, %35 ], [ %38, %37 ]
  store i64 %40, ptr %15, align 8, !tbaa !49
  %41 = load i64, ptr %14, align 8, !tbaa !49
  store i64 %41, ptr %10, align 8, !tbaa !49
  br label %42

42:                                               ; preds = %55, %39
  %43 = load i64, ptr %10, align 8, !tbaa !49
  %44 = load i64, ptr %15, align 8, !tbaa !49
  %45 = icmp sle i64 %43, %44
  br i1 %45, label %47, label %46

46:                                               ; preds = %42
  br label %58

47:                                               ; preds = %42
  %48 = load i64, ptr %10, align 8, !tbaa !49
  %49 = mul nsw i64 %48, 1
  %50 = add nsw i64 0, %49
  store i64 %50, ptr %18, align 8, !tbaa !49
  %51 = load ptr, ptr %9, align 8, !tbaa !51
  %52 = load i64, ptr %18, align 8, !tbaa !49
  invoke void @"_ZZZZN6open3d1t8geometry6kernel5image16ColorizeDepthCPUERKNS_4core6TensorERS5_fffENK3$_0clEvENKUlvE2_clEvENKUllE_clEl"(ptr noundef nonnull align 8 dereferenceable(136) %51, i64 noundef %52)
          to label %53 unwind label %63

53:                                               ; preds = %47
  br label %54

54:                                               ; preds = %53
  br label %55

55:                                               ; preds = %54
  %56 = load i64, ptr %10, align 8, !tbaa !49
  %57 = add nsw i64 %56, 1
  store i64 %57, ptr %10, align 8, !tbaa !49
  br label %42

58:                                               ; preds = %46
  br label %59

59:                                               ; preds = %58
  %60 = load ptr, ptr %5, align 8
  %61 = load i32, ptr %60, align 4, !tbaa !127
  call void @__kmpc_for_static_fini(ptr @1, i32 %61)
  call void @llvm.lifetime.end.p0(i64 8, ptr %18) #19
  call void @llvm.lifetime.end.p0(i64 4, ptr %17) #19
  call void @llvm.lifetime.end.p0(i64 8, ptr %16) #19
  call void @llvm.lifetime.end.p0(i64 8, ptr %15) #19
  call void @llvm.lifetime.end.p0(i64 8, ptr %14) #19
  br label %62

62:                                               ; preds = %59, %4
  call void @llvm.lifetime.end.p0(i64 8, ptr %12) #19
  call void @llvm.lifetime.end.p0(i64 8, ptr %11) #19
  call void @llvm.lifetime.end.p0(i64 8, ptr %10) #19
  ret void

63:                                               ; preds = %47
  %64 = landingpad { ptr, i32 }
          catch ptr null
  %65 = extractvalue { ptr, i32 } %64, 0
  call void @__clang_call_terminate(ptr %65) #29
  unreachable
}